target datalayout = "e-m:e-p270:32:32-p271:32:32-p272:64:64-i64:64-i128:128-f80:128-n8:16:32:64-S128"
target triple = "x86_64-pc-linux-gnu"

%struct.GinTupleCollector = type { ptr, i32, i32, i32 }
%struct.IndexTupleData = type { %struct.ItemPointerData, i16 }
%struct.ItemPointerData = type { %struct.BlockIdData, i16 }
%struct.BlockIdData = type { i16, i16 }

@.str.1 = private unnamed_addr constant [10 x i8] c"ginfast.c\00", align 1
@.str.2 = private unnamed_addr constant [31 x i8] c"too many entries for GIN index\00", align 1
@__func__.ginHeapTupleFastCollect = private unnamed_addr constant [24 x i8] c"ginHeapTupleFastCollect\00", align 1

; Function Attrs: inlinehint nounwind uwtable
define internal i32 @pg_leftmost_one_pos32(i32 noundef %0) #4 {
  %2 = alloca i32, align 4
  store i32 %0, ptr %2, align 4
  %3 = load i32, ptr %2, align 4
  %4 = call i32 @llvm.ctlz.i32(i32 %3, i1 true)
  %5 = sub i32 31, %4
  ret i32 %5
}

; Function Attrs: inlinehint nounwind uwtable
define internal i64 @IndexTupleSize(ptr noundef %0) #4 {
  %2 = alloca ptr, align 8
  store ptr %0, ptr %2, align 8
  %3 = load ptr, ptr %2, align 8
  %4 = getelementptr inbounds nuw %struct.IndexTupleData, ptr %3, i32 0, i32 1
  %5 = load i16, ptr %4, align 2
  %6 = zext i16 %5 to i32
  %7 = and i32 %6, 8191
  %8 = sext i32 %7 to i64
  ret i64 %8
}

; Function Attrs: inlinehint nounwind uwtable
define internal i32 @pg_nextpower2_32(i32 noundef %0) #4 {
  %2 = alloca i32, align 4
  %3 = alloca i32, align 4
  store i32 %0, ptr %3, align 4
  %4 = load i32, ptr %3, align 4
  %5 = load i32, ptr %3, align 4
  %6 = sub i32 %5, 1
  %7 = and i32 %4, %6
  %8 = icmp eq i32 %7, 0
  br i1 %8, label %9, label %11

9:                                                ; preds = %1
  %10 = load i32, ptr %3, align 4
  store i32 %10, ptr %2, align 4
  br label %16

11:                                               ; preds = %1
  %12 = load i32, ptr %3, align 4
  %13 = call i32 @pg_leftmost_one_pos32(i32 noundef %12)
  %14 = add i32 %13, 1
  %15 = shl i32 1, %14
  store i32 %15, ptr %2, align 4
  br label %16

16:                                               ; preds = %11, %9
  %17 = load i32, ptr %2, align 4
  ret i32 %17
}

; Function Attrs: nounwind uwtable
define dso_local void @ginHeapTupleFastCollect(ptr noundef %0, ptr noundef %1, i16 noundef zeroext %2, i64 noundef %3, i1 noundef zeroext %4, ptr noundef %5) #0 {
  %7 = alloca ptr, align 8
  %8 = alloca ptr, align 8
  %9 = alloca i16, align 2
  %10 = alloca i64, align 8
  %11 = alloca i8, align 1
  %12 = alloca ptr, align 8
  %13 = alloca ptr, align 8
  %14 = alloca ptr, align 8
  %15 = alloca i32, align 4
  %16 = alloca i32, align 4
  %17 = alloca ptr, align 8
  store ptr %0, ptr %7, align 8
  store ptr %1, ptr %8, align 8
  store i16 %2, ptr %9, align 2
  store i64 %3, ptr %10, align 8
  %18 = zext i1 %4 to i8
  store i8 %18, ptr %11, align 1
  store ptr %5, ptr %12, align 8
  call void @llvm.lifetime.start.p0(i64 8, ptr %13) #8
  call void @llvm.lifetime.start.p0(i64 8, ptr %14) #8
  call void @llvm.lifetime.start.p0(i64 4, ptr %15) #8
  call void @llvm.lifetime.start.p0(i64 4, ptr %16) #8
  %19 = load ptr, ptr %7, align 8
  %20 = load i16, ptr %9, align 2
  %21 = load i64, ptr %10, align 8
  %22 = load i8, ptr %11, align 1, !range !4, !noundef !5
  %23 = trunc i8 %22 to i1
  %24 = call ptr @ginExtractEntries(ptr noundef %19, i16 noundef zeroext %20, i64 noundef %21, i1 noundef zeroext %23, ptr noundef %16, ptr noundef %14)
  store ptr %24, ptr %13, align 8
  %25 = load i32, ptr %16, align 4
  %26 = icmp slt i32 %25, 0
  br i1 %26, label %35, label %27

27:                                               ; preds = %6
  %28 = load ptr, ptr %8, align 8
  %29 = getelementptr inbounds nuw %struct.GinTupleCollector, ptr %28, i32 0, i32 1
  %30 = load i32, ptr %29, align 8
  %31 = load i32, ptr %16, align 4
  %32 = add i32 %30, %31
  %33 = zext i32 %32 to i64
  %34 = icmp ugt i64 %33, 134217727
  br i1 %34, label %35, label %46

35:                                               ; preds = %27, %6
  br label %36

36:                                               ; preds = %35
  br i1 true, label %37, label %39

37:                                               ; preds = %36
  %38 = call zeroext i1 @errstart_cold(i32 noundef 21, ptr noundef null) #9
  br i1 %38, label %41, label %43

39:                                               ; preds = %36
  %40 = call zeroext i1 @errstart(i32 noundef 21, ptr noundef null)
  br i1 %40, label %41, label %43

41:                                               ; preds = %39, %37
  %42 = call i32 (ptr, ...) @errmsg_internal(ptr noundef @.str.2)
  call void @errfinish(ptr noundef @.str.1, i32 noundef 504, ptr noundef @__func__.ginHeapTupleFastCollect)
  br label %43

43:                                               ; preds = %41, %39, %37
  unreachable

44:                                               ; No predecessors!
  br label %45

45:                                               ; preds = %44
  br label %46

46:                                               ; preds = %45, %27
  %47 = load ptr, ptr %8, align 8
  %48 = getelementptr inbounds nuw %struct.GinTupleCollector, ptr %47, i32 0, i32 0
  %49 = load ptr, ptr %48, align 8
  %50 = icmp eq ptr %49, null
  br i1 %50, label %51, label %70

51:                                               ; preds = %46
  %52 = load i32, ptr %16, align 4
  %53 = icmp sgt i32 16, %52
  br i1 %53, label %54, label %55

54:                                               ; preds = %51
  br label %57

55:                                               ; preds = %51
  %56 = load i32, ptr %16, align 4
  br label %57

57:                                               ; preds = %55, %54
  %58 = phi i32 [ 16, %54 ], [ %56, %55 ]
  %59 = call i32 @pg_nextpower2_32(i32 noundef %58)
  %60 = load ptr, ptr %8, align 8
  %61 = getelementptr inbounds nuw %struct.GinTupleCollector, ptr %60, i32 0, i32 2
  store i32 %59, ptr %61, align 4
  %62 = load ptr, ptr %8, align 8
  %63 = getelementptr inbounds nuw %struct.GinTupleCollector, ptr %62, i32 0, i32 2
  %64 = load i32, ptr %63, align 4
  %65 = zext i32 %64 to i64
  %66 = mul i64 8, %65
  %67 = call ptr @palloc(i64 noundef %66)
  %68 = load ptr, ptr %8, align 8
  %69 = getelementptr inbounds nuw %struct.GinTupleCollector, ptr %68, i32 0, i32 0
  store ptr %67, ptr %69, align 8
  br label %101

70:                                               ; preds = %46
  %71 = load ptr, ptr %8, align 8
  %72 = getelementptr inbounds nuw %struct.GinTupleCollector, ptr %71, i32 0, i32 2
  %73 = load i32, ptr %72, align 4
  %74 = load ptr, ptr %8, align 8
  %75 = getelementptr inbounds nuw %struct.GinTupleCollector, ptr %74, i32 0, i32 1
  %76 = load i32, ptr %75, align 8
  %77 = load i32, ptr %16, align 4
  %78 = add i32 %76, %77
  %79 = icmp ult i32 %73, %78
  br i1 %79, label %80, label %100

80:                                               ; preds = %70
  %81 = load ptr, ptr %8, align 8
  %82 = getelementptr inbounds nuw %struct.GinTupleCollector, ptr %81, i32 0, i32 1
  %83 = load i32, ptr %82, align 8
  %84 = load i32, ptr %16, align 4
  %85 = add i32 %83, %84
  %86 = call i32 @pg_nextpower2_32(i32 noundef %85)
  %87 = load ptr, ptr %8, align 8
  %88 = getelementptr inbounds nuw %struct.GinTupleCollector, ptr %87, i32 0, i32 2
  store i32 %86, ptr %88, align 4
  %89 = load ptr, ptr %8, align 8
  %90 = getelementptr inbounds nuw %struct.GinTupleCollector, ptr %89, i32 0, i32 0
  %91 = load ptr, ptr %90, align 8
  %92 = load ptr, ptr %8, align 8
  %93 = getelementptr inbounds nuw %struct.GinTupleCollector, ptr %92, i32 0, i32 2
  %94 = load i32, ptr %93, align 4
  %95 = zext i32 %94 to i64
  %96 = mul i64 8, %95
  %97 = call ptr @repalloc(ptr noundef %91, i64 noundef %96)
  %98 = load ptr, ptr %8, align 8
  %99 = getelementptr inbounds nuw %struct.GinTupleCollector, ptr %98, i32 0, i32 0
  store ptr %97, ptr %99, align 8
  br label %100

100:                                              ; preds = %80, %70
  br label %101

101:                                              ; preds = %100, %57
  store i32 0, ptr %15, align 4
  br label %102

102:                                              ; preds = %141, %101
  %103 = load i32, ptr %15, align 4
  %104 = load i32, ptr %16, align 4
  %105 = icmp slt i32 %103, %104
  br i1 %105, label %106, label %144

106:                                              ; preds = %102
  call void @llvm.lifetime.start.p0(i64 8, ptr %17) #8
  %107 = load ptr, ptr %7, align 8
  %108 = load i16, ptr %9, align 2
  %109 = load ptr, ptr %13, align 8
  %110 = load i32, ptr %15, align 4
  %111 = sext i32 %110 to i64
  %112 = getelementptr inbounds i64, ptr %109, i64 %111
  %113 = load i64, ptr %112, align 8
  %114 = load ptr, ptr %14, align 8
  %115 = load i32, ptr %15, align 4
  %116 = sext i32 %115 to i64
  %117 = getelementptr inbounds i8, ptr %114, i64 %116
  %118 = load i8, ptr %117, align 1
  %119 = call ptr @GinFormTuple(ptr noundef %107, i16 noundef zeroext %108, i64 noundef %113, i8 noundef signext %118, ptr noundef null, i64 noundef 0, i32 noundef 0, i1 noundef zeroext true)
  store ptr %119, ptr %17, align 8
  %120 = load ptr, ptr %17, align 8
  %121 = getelementptr inbounds nuw %struct.IndexTupleData, ptr %120, i32 0, i32 0
  %122 = load ptr, ptr %12, align 8
  call void @llvm.memcpy.p0.p0.i64(ptr align 2 %121, ptr align 2 %122, i64 6, i1 false)
  %123 = load ptr, ptr %17, align 8
  %124 = load ptr, ptr %8, align 8
  %125 = getelementptr inbounds nuw %struct.GinTupleCollector, ptr %124, i32 0, i32 0
  %126 = load ptr, ptr %125, align 8
  %127 = load ptr, ptr %8, align 8
  %128 = getelementptr inbounds nuw %struct.GinTupleCollector, ptr %127, i32 0, i32 1
  %129 = load i32, ptr %128, align 8
  %130 = add i32 %129, 1
  store i32 %130, ptr %128, align 8
  %131 = zext i32 %129 to i64
  %132 = getelementptr inbounds nuw ptr, ptr %126, i64 %131
  store ptr %123, ptr %132, align 8
  %133 = load ptr, ptr %17, align 8
  %134 = call i64 @IndexTupleSize(ptr noundef %133)
  %135 = load ptr, ptr %8, align 8
  %136 = getelementptr inbounds nuw %struct.GinTupleCollector, ptr %135, i32 0, i32 3
  %137 = load i32, ptr %136, align 8
  %138 = zext i32 %137 to i64
  %139 = add i64 %138, %134
  %140 = trunc i64 %139 to i32
  store i32 %140, ptr %136, align 8
  call void @llvm.lifetime.end.p0(i64 8, ptr %17) #8
  br label %141

141:                                              ; preds = %106
  %142 = load i32, ptr %15, align 4
  %143 = add i32 %142, 1
  store i32 %143, ptr %15, align 4
  br label %102, !llvm.loop !11

144:                                              ; preds = %102
  call void @llvm.lifetime.end.p0(i64 4, ptr %16) #8
  call void @llvm.lifetime.end.p0(i64 4, ptr %15) #8
  call void @llvm.lifetime.end.p0(i64 8, ptr %14) #8
  call void @llvm.lifetime.end.p0(i64 8, ptr %13) #8
  ret void
}