; Function Attrs: nounwind uwtable
define dso_local void @ginHeapTupleFastCollect(ptr noundef %0, ptr noundef captures(none) %1, i16 noundef zeroext %2, i64 noundef %3, i1 noundef zeroext %4, ptr noundef readonly captures(none) %5) local_unnamed_addr #0 {
  %7 = alloca ptr, align 8
  %8 = alloca i32, align 4
  call void @llvm.lifetime.start.p0(i64 8, ptr nonnull %7) #9
  call void @llvm.lifetime.start.p0(i64 4, ptr nonnull %8) #9
  %9 = call ptr @ginExtractEntries(ptr noundef %0, i16 noundef zeroext %2, i64 noundef %3, i1 noundef zeroext %4, ptr noundef nonnull %8, ptr noundef nonnull %7) #9
  %10 = load i32, ptr %8, align 4
  %11 = icmp slt i32 %10, 0
  br i1 %11, label %17, label %12

12:                                               ; preds = %6
  %13 = getelementptr inbounds nuw i8, ptr %1, i64 8
  %14 = load i32, ptr %13, align 8
  %15 = add i32 %14, %10
  %16 = icmp ugt i32 %15, 134217727
  br i1 %16, label %17, label %20

17:                                               ; preds = %12, %6
  %18 = call zeroext i1 @errstart_cold(i32 noundef 21, ptr noundef null) #10
  call void @llvm.assume(i1 %18)
  %19 = call i32 (ptr, ...) @errmsg_internal(ptr noundef nonnull @.str.2) #9
  call void @errfinish(ptr noundef nonnull @.str.1, i32 noundef 504, ptr noundef nonnull @__func__.ginHeapTupleFastCollect) #9
  unreachable

20:                                               ; preds = %12
  %21 = load ptr, ptr %1, align 8
  %22 = icmp eq ptr %21, null
  br i1 %22, label %23, label %34

23:                                               ; preds = %20
  %24 = call i32 @llvm.umax.i32(i32 %10, i32 16)
  %25 = call range(i32 1, 32) i32 @llvm.ctpop.i32(i32 %24)
  %26 = icmp samesign ult i32 %25, 2
  %27 = call range(i32 0, 33) i32 @llvm.ctlz.i32(i32 %24, i1 true)
  %28 = xor i32 %27, 31
  %29 = shl nuw i32 2, %28
  %.0.i = select i1 %26, i32 %24, i32 %29
  %30 = getelementptr inbounds nuw i8, ptr %1, i64 12
  store i32 %.0.i, ptr %30, align 4
  %31 = zext i32 %.0.i to i64
  %32 = shl nuw nsw i64 %31, 3
  %33 = call ptr @palloc(i64 noundef %32) #9
  br label %.sink.split

34:                                               ; preds = %20
  %35 = getelementptr inbounds nuw i8, ptr %1, i64 12
  %36 = load i32, ptr %35, align 4
  %37 = icmp ult i32 %36, %15
  br i1 %37, label %38, label %47

38:                                               ; preds = %34
  %39 = call range(i32 1, 28) i32 @llvm.ctpop.i32(i32 %15)
  %40 = icmp samesign ult i32 %39, 2
  %41 = call range(i32 0, 33) i32 @llvm.ctlz.i32(i32 %15, i1 true)
  %42 = xor i32 %41, 31
  %43 = shl nuw nsw i32 2, %42
  %.0.i31 = select i1 %40, i32 %15, i32 %43
  store i32 %.0.i31, ptr %35, align 4
  %44 = zext nneg i32 %.0.i31 to i64
  %45 = shl nuw nsw i64 %44, 3
  %46 = call ptr @repalloc(ptr noundef nonnull %21, i64 noundef %45) #9
  br label %.sink.split

.sink.split:                                      ; preds = %23, %38
  %.sink = phi ptr [ %46, %38 ], [ %33, %23 ]
  store ptr %.sink, ptr %1, align 8
  br label %47

47:                                               ; preds = %.sink.split, %34
  %48 = load i32, ptr %8, align 4
  %49 = icmp sgt i32 %48, 0
  br i1 %49, label %.lr.ph, label %._crit_edge

.lr.ph:                                           ; preds = %47
  %50 = getelementptr inbounds nuw i8, ptr %1, i64 16
  br label %51

51:                                               ; preds = %.lr.ph, %51
  %indvars.iv = phi i64 [ 0, %.lr.ph ], [ %indvars.iv.next, %51 ]
  %52 = getelementptr inbounds nuw i64, ptr %9, i64 %indvars.iv
  %53 = load i64, ptr %52, align 8
  %54 = load ptr, ptr %7, align 8
  %55 = getelementptr inbounds nuw i8, ptr %54, i64 %indvars.iv
  %56 = load i8, ptr %55, align 1
  %57 = call ptr @GinFormTuple(ptr noundef %0, i16 noundef zeroext %2, i64 noundef %53, i8 noundef signext %56, ptr noundef null, i64 noundef 0, i32 noundef 0, i1 noundef zeroext true) #9
  call void @llvm.memcpy.p0.p0.i64(ptr noundef nonnull align 2 dereferenceable(6) %57, ptr noundef nonnull align 2 dereferenceable(6) %5, i64 6, i1 false)
  %58 = load ptr, ptr %1, align 8
  %59 = load i32, ptr %13, align 8
  %60 = add i32 %59, 1
  store i32 %60, ptr %13, align 8
  %61 = zext i32 %59 to i64
  %62 = getelementptr inbounds nuw ptr, ptr %58, i64 %61
  store ptr %57, ptr %62, align 8
  %63 = getelementptr i8, ptr %57, i64 6
  %.val = load i16, ptr %63, align 2
  %64 = and i16 %.val, 8191
  %65 = load i32, ptr %50, align 8
  %66 = zext nneg i16 %64 to i32
  %67 = add i32 %65, %66
  store i32 %67, ptr %50, align 8
  %indvars.iv.next = add nuw nsw i64 %indvars.iv, 1
  %68 = load i32, ptr %8, align 4
  %69 = sext i32 %68 to i64
  %70 = icmp slt i64 %indvars.iv.next, %69
  br i1 %70, label %51, label %._crit_edge, !llvm.loop !16

._crit_edge:                                      ; preds = %51, %47
  call void @llvm.lifetime.end.p0(i64 4, ptr nonnull %8) #9
  call void @llvm.lifetime.end.p0(i64 8, ptr nonnull %7) #9
  ret void
}